; Function Attrs: mustprogress uwtable
define noundef ptr @_ZN11duckdb_zstd18ZSTD_createCStreamEv() local_unnamed_addr #2 {
_ZN11duckdb_zstdL17ZSTD_customMallocEmNS_14ZSTD_customMemE.exit.i.i:
  %calloc = tail call dereferenceable_or_null(5248) ptr @calloc(i64 1, i64 5248)
  %.not6.i.i = icmp eq ptr %calloc, null
  br i1 %.not6.i.i, label %_ZN11duckdb_zstd27ZSTD_createCStream_advancedENS_14ZSTD_customMemE.exit, label %0

0:                                                ; preds = %_ZN11duckdb_zstdL17ZSTD_customMallocEmNS_14ZSTD_customMemE.exit.i.i
  %1 = tail call i32 asm "cpuid", "={ax},{ax},~{ebx},~{ecx},~{edx},~{dirflag},~{fpsr},~{flags}"(i32 0) #26, !srcloc !3
  %.not.i.i.i.i.i = icmp eq i32 %1, 0
  br i1 %.not.i.i.i.i.i, label %_ZN11duckdb_zstdL13ZSTD_initCCtxEPNS_11ZSTD_CCtx_sENS_14ZSTD_customMemE.exit.i.i, label %2

2:                                                ; preds = %0
  %3 = tail call { i32, i32, i32 } asm "cpuid", "={ax},={cx},={dx},{ax},~{ebx},~{dirflag},~{fpsr},~{flags}"(i32 1) #26, !srcloc !4
  %4 = icmp ugt i32 %1, 6
  br i1 %4, label %_ZN11duckdb_zstdL10ZSTD_cpuidEv.exit.i.i.i.i, label %_ZN11duckdb_zstdL13ZSTD_initCCtxEPNS_11ZSTD_CCtx_sENS_14ZSTD_customMemE.exit.i.i

_ZN11duckdb_zstdL10ZSTD_cpuidEv.exit.i.i.i.i:     ; preds = %2
  %5 = tail call { i32, i32, i32 } asm "cpuid", "={ax},={bx},={cx},{ax},{cx},~{edx},~{dirflag},~{fpsr},~{flags}"(i32 7, i32 0) #26, !srcloc !5
  %6 = extractvalue { i32, i32, i32 } %5, 1
  %7 = and i32 %6, 8
  %.not.i.i.i.i = icmp eq i32 %7, 0
  br i1 %.not.i.i.i.i, label %_ZN11duckdb_zstdL13ZSTD_initCCtxEPNS_11ZSTD_CCtx_sENS_14ZSTD_customMemE.exit.i.i, label %8

8:                                                ; preds = %_ZN11duckdb_zstdL10ZSTD_cpuidEv.exit.i.i.i.i
  %9 = lshr i32 %6, 8
  %10 = and i32 %9, 1
  br label %_ZN11duckdb_zstdL13ZSTD_initCCtxEPNS_11ZSTD_CCtx_sENS_14ZSTD_customMemE.exit.i.i

_ZN11duckdb_zstdL13ZSTD_initCCtxEPNS_11ZSTD_CCtx_sENS_14ZSTD_customMemE.exit.i.i: ; preds = %8, %_ZN11duckdb_zstdL10ZSTD_cpuidEv.exit.i.i.i.i, %2, %0
  %11 = phi i32 [ 0, %_ZN11duckdb_zstdL10ZSTD_cpuidEv.exit.i.i.i.i ], [ %10, %8 ], [ 0, %2 ], [ 0, %0 ]
  %12 = getelementptr inbounds nuw i8, ptr %calloc, i64 8
  store i32 %11, ptr %12, align 8, !tbaa !6
  tail call fastcc void @_ZN11duckdb_zstdL18ZSTD_clearAllDictsEPNS_11ZSTD_CCtx_sE(ptr noundef nonnull %calloc)
  %13 = getelementptr inbounds nuw i8, ptr %calloc, i64 16
  tail call void @llvm.memset.p0.i64(ptr noundef nonnull align 8 dereferenceable(216) %13, i8 0, i64 216, i1 false)
  %14 = getelementptr inbounds nuw i8, ptr %calloc, i64 60
  store i32 3, ptr %14, align 4, !tbaa !57
  %15 = getelementptr inbounds nuw i8, ptr %calloc, i64 48
  store i32 1, ptr %15, align 8, !tbaa !58
  br label %_ZN11duckdb_zstd27ZSTD_createCStream_advancedENS_14ZSTD_customMemE.exit

_ZN11duckdb_zstd27ZSTD_createCStream_advancedENS_14ZSTD_customMemE.exit: ; preds = %_ZN11duckdb_zstdL17ZSTD_customMallocEmNS_14ZSTD_customMemE.exit.i.i, %_ZN11duckdb_zstdL13ZSTD_initCCtxEPNS_11ZSTD_CCtx_sENS_14ZSTD_customMemE.exit.i.i
  ret ptr %calloc
}